; Function Attrs: uwtable
define void @_ZThn16_N3zmq20stream_engine_base_t14restart_outputEv(ptr noundef %this) unnamed_addr #9 align 2 {
entry:
  %0 = getelementptr inbounds i8, ptr %this, i64 -16
  %_io_error.i = getelementptr inbounds i8, ptr %this, i64 1648
  %1 = load i8, ptr %_io_error.i, align 8
  %2 = and i8 %1, 1
  %tobool.not.i = icmp eq i8 %2, 0
  br i1 %tobool.not.i, label %if.end.i, label %_ZN3zmq20stream_engine_base_t14restart_outputEv.exit

if.end.i:                                         ; preds = %entry
  %_output_stopped.i = getelementptr inbounds i8, ptr %this, i64 1441
  %3 = load i8, ptr %_output_stopped.i, align 1
  %4 = and i8 %3, 1
  %tobool2.not.i = icmp eq i8 %4, 0
  br i1 %tobool2.not.i, label %if.end5.i, label %if.then3.i

if.then3.i:                                       ; preds = %if.end.i
  %_handle.i.i = getelementptr inbounds i8, ptr %this, i64 1568
  %5 = load ptr, ptr %_handle.i.i, align 8
  tail call void @_ZN3zmq11io_object_t11set_polloutEPv(ptr noundef nonnull align 8 dereferenceable(16) %0, ptr noundef %5)
  store i8 0, ptr %_output_stopped.i, align 1
  br label %if.end5.i

if.end5.i:                                        ; preds = %if.then3.i, %if.end.i
  %vtable.i = load ptr, ptr %0, align 8
  %vfn.i = getelementptr inbounds i8, ptr %vtable.i, i64 24
  %6 = load ptr, ptr %vfn.i, align 8
  tail call void %6(ptr noundef nonnull align 8 dereferenceable(1689) %0)
  br label %_ZN3zmq20stream_engine_base_t14restart_outputEv.exit

_ZN3zmq20stream_engine_base_t14restart_outputEv.exit: ; preds = %entry, %if.end5.i
  ret void
}